(i__main__
Area
p0
(dp1
S'map'
p2
(lp3
(lp4
I1
aI1
aI4
aI1
aI2
aI0
aI4
aI1
aI0
aI3
aI1
aI0
aI2
aI0
aI1
aI4
aI3
aI2
aI0
aI3
aI3
aI0
aI0
aI0
aI3
aI3
aI0
aI0
aI0
aI1
aI1
aI0
aa(lp5
I1
aI1
aI0
aI2
aI4
aI1
aI0
aI4
aI1
aI1
aI4
aI3
aI0
aI1
aI1
aI0
aI1
aI1
aI3
aI0
aI3
aI3
aI0
aI3
aI2
aI4
aI4
aI2
aI3
aI0
aI3
aI2
aa(lp6
I3
aI0
aI0
aI4
aI1
aI1
aI0
aI2
aI1
aI0
aI4
aI4
aI2
aI3
aI0
aI4
aI3
aI3
aI2
aI1
aI1
aI0
aI3
aI1
aI1
aI2
aI3
aI4
aI4
aI4
aI3
aI1
aa(lp7
I0
aI2
aI3
aI3
aI0
aI4
aI4
aI2
aI3
aI4
aI3
aI0
aI2
aI0
aI4
aI0
aI0
aI0
aI0
aI1
aI2
aI3
aI1
aI3
aI0
aI0
aI4
aI3
aI2
aI4
aI3
aI1
aa(lp8
I4
aI2
aI2
aI1
aI0
aI2
aI2
aI3
aI0
aI4
aI2
aI4
aI3
aI3
aI1
aI0
aI4
aI4
aI3
aI1
aI0
aI2
aI4
aI4
aI0
aI1
aI3
aI1
aI1
aI0
aI1
aI2
aa(lp9
I2
aI1
aI0
aI1
aI1
aI0
aI3
aI4
aI3
aI0
aI4
aI4
aI2
aI2
aI4
aI0
aI1
aI0
aI1
aI1
aI2
aI1
aI3
aI1
aI0
aI1
aI4
aI0
aI4
aI2
aI0
aI4
aa(lp10
I3
aI2
aI3
aI1
aI2
aI1
aI1
aI4
aI1
aI0
aI4
aI2
aI0
aI4
aI4
aI4
aI4
aI2
aI2
aI0
aI0
aI1
aI1
aI3
aI0
aI2
aI4
aI1
aI3
aI4
aI2
aI0
aa(lp11
I1
aI1
aI4
aI4
aI1
aI1
aI1
aI4
aI4
aI1
aI4
aI4
aI3
aI1
aI2
aI3
aI1
aI2
aI1
aI3
aI0
aI4
aI0
aI0
aI0
aI3
aI1
aI2
aI1
aI4
aI4
aI4
aa(lp12
I2
aI0
aI2
aI2
aI0
aI0
aI1
aI4
aI2
aI2
aI0
aI1
aI1
aI1
aI3
aI4
aI3
aI1
aI1
aI0
aI2
aI1
aI3
aI3
aI4
aI4
aI4
aI1
aI4
aI3
aI2
aI0
aa(lp13
I3
aI2
aI2
aI4
aI4
aI2
aI0
aI1
aI3
aI0
aI0
aI2
aI1
aI0
aI4
aI4
aI2
aI0
aI1
aI0
aI1
aI0
aI4
aI3
aI4
aI3
aI3
aI2
aI2
aI3
aI1
aI1
aa(lp14
I3
aI0
aI2
aI1
aI4
aI1
aI1
aI0
aI3
aI1
aI3
aI2
aI0
aI1
aI4
aI2
aI3
aI3
aI2
aI1
aI2
aI2
aI4
aI4
aI2
aI2
aI0
aI1
aI0
aI2
aI1
aI4
aa(lp15
I3
aI4
aI0
aI4
aI3
aI0
aI3
aI4
aI2
aI2
aI1
aI2
aI1
aI3
aI1
aI3
aI2
aI4
aI3
aI1
aI1
aI3
aI3
aI4
aI2
aI3
aI2
aI2
aI0
aI1
aI0
aI3
aa(lp16
I0
aI4
aI4
aI0
aI1
aI3
aI4
aI1
aI1
aI3
aI2
aI0
aI3
aI3
aI3
aI0
aI4
aI1
aI1
aI0
aI2
aI0
aI3
aI3
aI0
aI4
aI4
aI3
aI1
aI3
aI3
aI3
aa(lp17
I4
aI2
aI1
aI2
aI0
aI0
aI1
aI4
aI3
aI0
aI2
aI2
aI0
aI1
aI1
aI0
aI4
aI0
aI1
aI1
aI0
aI2
aI4
aI3
aI0
aI3
aI0
aI4
aI2
aI1
aI2
aI3
aa(lp18
I2
aI4
aI1
aI1
aI1
aI1
aI3
aI3
aI3
aI4
aI4
aI0
aI2
aI3
aI1
aI2
aI2
aI2
aI4
aI2
aI3
aI1
aI3
aI3
aI4
aI0
aI0
aI2
aI2
aI4
aI4
aI4
aa(lp19
I4
aI0
aI2
aI0
aI4
aI2
aI4
aI1
aI2
aI4
aI1
aI0
aI3
aI0
aI2
aI0
aI3
aI3
aI3
aI0
aI4
aI0
aI2
aI0
aI2
aI1
aI2
aI3
aI3
aI4
aI1
aI0
aa(lp20
I3
aI0
aI0
aI0
aI2
aI0
aI0
aI4
aI1
aI4
aI4
aI1
aI1
aI1
aI0
aI3
aI1
aI4
aI1
aI4
aI1
aI3
aI0
aI3
aI4
aI0
aI2
aI4
aI1
aI4
aI4
aI3
aa(lp21
I3
aI3
aI2
aI0
aI2
aI4
aI0
aI4
aI2
aI2
aI0
aI1
aI2
aI1
aI4
aI2
aI1
aI1
aI0
aI3
aI4
aI2
aI3
aI4
aI0
aI4
aI2
aI1
aI1
aI1
aI0
aI4
aa(lp22
I4
aI2
aI1
aI2
aI0
aI1
aI2
aI4
aI1
aI0
aI1
aI4
aI1
aI1
aI0
aI2
aI3
aI2
aI4
aI3
aI0
aI1
aI2
aI0
aI0
aI2
aI0
aI0
aI0
aI4
aI0
aI2
aa(lp23
I4
aI1
aI3
aI2
aI2
aI4
aI3
aI2
aI4
aI1
aI4
aI2
aI3
aI2
aI0
aI2
aI4
aI1
aI0
aI2
aI2
aI2
aI1
aI1
aI3
aI4
aI2
aI3
aI3
aI3
aI1
aI4
aa(lp24
I4
aI2
aI3
aI2
aI3
aI2
aI2
aI2
aI1
aI1
aI3
aI2
aI0
aI3
aI2
aI0
aI2
aI4
aI0
aI0
aI2
aI4
aI0
aI3
aI1
aI1
aI2
aI3
aI0
aI1
aI0
aI4
aa(lp25
I4
aI1
aI2
aI4
aI1
aI3
aI1
aI2
aI1
aI2
aI4
aI2
aI3
aI2
aI2
aI0
aI2
aI4
aI2
aI1
aI0
aI3
aI0
aI0
aI3
aI0
aI2
aI1
aI0
aI1
aI4
aI1
aa(lp26
I3
aI4
aI1
aI1
aI4
aI2
aI1
aI0
aI3
aI4
aI3
aI1
aI2
aI3
aI0
aI1
aI0
aI2
aI0
aI0
aI2
aI2
aI0
aI3
aI3
aI1
aI4
aI4
aI2
aI3
aI0
aI3
aa(lp27
I3
aI1
aI4
aI2
aI1
aI2
aI2
aI3
aI1
aI2
aI0
aI4
aI3
aI1
aI2
aI1
aI1
aI2
aI1
aI1
aI3
aI3
aI3
aI0
aI2
aI2
aI0
aI2
aI3
aI3
aI1
aI1
aasS'tiles'
p28
(lp29
I00
aI00
aI00
aI00
aI00
aI00
aI00
aI00
aI00
aI00
aI00
aI00
aI00
aI00
aI00
aI00
aI00
aI00
aI00
aI00
aI00
aI00
aI00
aI00
aI00
aI00
aI00
aI00
aI00
aI00
aI00
aI00
aI00
aI00
aI00
aI00
aI00
aI00
aI00
aI00
aI00
aI00
aI00
aI00
aI00
aI00
aI00
aI00
aI00
aI00
aI00
aI00
aI00
aI00
aI00
aI00
aI00
aI00
aI00
aI00
aI00
aI00
aI00
aI00
aI00
aI00
aI00
aI00
aI00
aI00
aI00
aI00
aI00
aI00
aI00
aI00
aI00
aI00
aI00
aI00
aI00
aI00
aI00
aI00
aI00
aI00
aI00
aI00
aI00
aI00
aI00
aI00
aI00
aI00
aI00
aI00
aI00
aI00
aI00
aI00
aI00
aI00
aI00
aI00
aI00
aI00
aI00
aI00
aI00
aI00
aI00
aI00
aI00
aI00
aI00
aI00
aI00
aI00
aI00
aI00
aI00
aI00
aI00
aI00
aI00
aI00
aI00
aI00
asb.