(i__main__
Area
p0
(dp1
S'map'
p2
(lp3
(lp4
I0
aI1
aI2
aI3
aI4
aI5
aI6
aI7
aI8
aI9
aI10
aI0
aI1
aI2
aI3
aI4
aI5
aI6
aI7
aI8
aI9
aI10
aI0
aI1
aI2
aI3
aI4
aI5
aI6
aI7
aI8
aI9
aa(lp5
I10
aI0
aI1
aI2
aI3
aI4
aI5
aI6
aI7
aI8
aI9
aI10
aI0
aI1
aI2
aI3
aI4
aI5
aI6
aI7
aI8
aI9
aI10
aI0
aI1
aI2
aI3
aI4
aI5
aI6
aI7
aI8
aa(lp6
I9
aI10
aI0
aI1
aI2
aI3
aI4
aI5
aI6
aI7
aI8
aI9
aI10
aI0
aI1
aI2
aI3
aI4
aI5
aI6
aI7
aI8
aI9
aI10
aI0
aI1
aI2
aI3
aI4
aI5
aI6
aI7
aa(lp7
I8
aI9
aI10
aI0
aI1
aI2
aI3
aI4
aI5
aI6
aI7
aI8
aI9
aI10
aI0
aI1
aI2
aI3
aI4
aI5
aI6
aI7
aI8
aI9
aI10
aI0
aI1
aI2
aI3
aI4
aI5
aI6
aa(lp8
I7
aI8
aI9
aI10
aI0
aI1
aI2
aI3
aI4
aI5
aI6
aI7
aI8
aI9
aI10
aI0
aI1
aI2
aI3
aI4
aI5
aI6
aI7
aI8
aI9
aI10
aI0
aI1
aI2
aI3
aI4
aI5
aa(lp9
I6
aI7
aI8
aI9
aI10
aI0
aI1
aI2
aI3
aI4
aI5
aI6
aI7
aI8
aI9
aI10
aI0
aI1
aI2
aI3
aI4
aI5
aI6
aI7
aI8
aI9
aI10
aI0
aI1
aI2
aI3
aI4
aa(lp10
I5
aI6
aI7
aI8
aI9
aI10
aI0
aI1
aI2
aI3
aI4
aI5
aI6
aI7
aI8
aI9
aI10
aI0
aI1
aI2
aI3
aI4
aI5
aI6
aI7
aI8
aI9
aI10
aI0
aI1
aI2
aI3
aa(lp11
I4
aI5
aI6
aI7
aI8
aI9
aI10
aI0
aI1
aI2
aI3
aI4
aI5
aI6
aI7
aI8
aI9
aI10
aI0
aI1
aI2
aI3
aI4
aI5
aI6
aI7
aI8
aI9
aI10
aI0
aI1
aI2
aa(lp12
I3
aI4
aI5
aI6
aI7
aI8
aI9
aI10
aI0
aI1
aI2
aI3
aI4
aI5
aI6
aI7
aI8
aI9
aI10
aI0
aI1
aI2
aI3
aI4
aI5
aI6
aI7
aI8
aI9
aI10
aI0
aI1
aa(lp13
I2
aI3
aI4
aI5
aI6
aI7
aI8
aI9
aI10
aI0
aI1
aI2
aI3
aI4
aI5
aI6
aI7
aI8
aI9
aI10
aI0
aI1
aI2
aI3
aI4
aI5
aI6
aI7
aI8
aI9
aI10
aI0
aa(lp14
I1
aI2
aI3
aI4
aI5
aI6
aI7
aI8
aI9
aI10
aI0
aI1
aI2
aI3
aI4
aI5
aI6
aI7
aI8
aI9
aI10
aI0
aI1
aI2
aI3
aI4
aI5
aI6
aI7
aI8
aI9
aI10
aa(lp15
I0
aI1
aI2
aI3
aI4
aI5
aI6
aI7
aI8
aI9
aI10
aI0
aI1
aI2
aI3
aI4
aI5
aI6
aI7
aI8
aI9
aI10
aI0
aI1
aI2
aI3
aI4
aI5
aI6
aI7
aI8
aI9
aa(lp16
I10
aI0
aI1
aI2
aI3
aI4
aI5
aI6
aI7
aI8
aI9
aI10
aI0
aI1
aI2
aI3
aI4
aI5
aI6
aI7
aI8
aI9
aI10
aI0
aI1
aI2
aI3
aI4
aI5
aI6
aI7
aI8
aa(lp17
I9
aI10
aI0
aI1
aI2
aI3
aI4
aI5
aI6
aI7
aI8
aI9
aI10
aI0
aI1
aI2
aI3
aI4
aI5
aI6
aI7
aI8
aI9
aI10
aI0
aI1
aI2
aI3
aI4
aI5
aI6
aI7
aa(lp18
I8
aI9
aI10
aI0
aI1
aI2
aI3
aI4
aI5
aI6
aI7
aI8
aI9
aI10
aI0
aI1
aI2
aI3
aI4
aI5
aI6
aI7
aI8
aI9
aI10
aI0
aI1
aI2
aI3
aI4
aI5
aI6
aa(lp19
I7
aI8
aI9
aI10
aI0
aI1
aI2
aI3
aI4
aI5
aI6
aI7
aI8
aI9
aI10
aI0
aI1
aI2
aI3
aI4
aI5
aI6
aI7
aI8
aI9
aI10
aI0
aI1
aI2
aI3
aI4
aI5
aa(lp20
I6
aI7
aI8
aI9
aI10
aI0
aI1
aI2
aI3
aI4
aI5
aI6
aI7
aI8
aI9
aI10
aI0
aI1
aI2
aI3
aI4
aI5
aI6
aI7
aI8
aI9
aI10
aI0
aI1
aI2
aI3
aI4
aa(lp21
I5
aI6
aI7
aI8
aI9
aI10
aI0
aI1
aI2
aI3
aI4
aI5
aI6
aI7
aI8
aI9
aI10
aI0
aI1
aI2
aI3
aI4
aI5
aI6
aI7
aI8
aI9
aI10
aI0
aI1
aI2
aI3
aa(lp22
I4
aI5
aI6
aI7
aI8
aI9
aI10
aI0
aI1
aI2
aI3
aI4
aI5
aI6
aI7
aI8
aI9
aI10
aI0
aI1
aI2
aI3
aI4
aI5
aI6
aI7
aI8
aI9
aI10
aI0
aI1
aI2
aa(lp23
I3
aI4
aI5
aI6
aI7
aI8
aI9
aI10
aI0
aI1
aI2
aI3
aI4
aI5
aI6
aI7
aI8
aI9
aI10
aI0
aI1
aI2
aI3
aI4
aI5
aI6
aI7
aI8
aI9
aI10
aI0
aI1
aa(lp24
I2
aI3
aI4
aI5
aI6
aI7
aI8
aI9
aI10
aI0
aI1
aI2
aI3
aI4
aI5
aI6
aI7
aI8
aI9
aI10
aI0
aI1
aI2
aI3
aI4
aI5
aI6
aI7
aI8
aI9
aI10
aI0
aa(lp25
I1
aI2
aI3
aI4
aI5
aI6
aI7
aI8
aI9
aI10
aI0
aI1
aI2
aI3
aI4
aI5
aI6
aI7
aI8
aI9
aI10
aI0
aI1
aI2
aI3
aI4
aI5
aI6
aI7
aI8
aI9
aI10
aa(lp26
I0
aI1
aI2
aI3
aI4
aI5
aI6
aI7
aI8
aI9
aI10
aI0
aI1
aI2
aI3
aI4
aI5
aI6
aI7
aI8
aI9
aI10
aI0
aI1
aI2
aI3
aI4
aI5
aI6
aI7
aI8
aI9
aa(lp27
I10
aI0
aI1
aI2
aI3
aI4
aI5
aI6
aI7
aI8
aI9
aI10
aI0
aI1
aI2
aI3
aI4
aI5
aI6
aI7
aI8
aI9
aI10
aI0
aI1
aI2
aI3
aI4
aI5
aI6
aI7
aI8
aasS'tiles'
p28
(lp29
I00
aI00
aI00
aI00
aI00
aI00
aI00
aI00
aI00
aI00
aI00
aI00
aI00
aI00
aI00
aI00
aI00
aI00
aI00
aI00
aI00
aI00
aI00
aI00
aI00
aI00
aI00
aI00
aI00
aI00
aI00
aI00
aI00
aI00
aI00
aI00
aI00
aI00
aI00
aI00
aI00
aI00
aI00
aI00
aI00
aI00
aI00
aI00
aI00
aI00
aI00
aI00
aI00
aI00
aI00
aI00
aI00
aI00
aI00
aI00
aI00
aI00
aI00
aI00
aI00
aI00
aI00
aI00
aI00
aI00
aI00
aI00
aI00
aI00
aI00
aI00
aI00
aI00
aI00
aI00
aI00
aI00
aI00
aI00
aI00
aI00
aI00
aI00
aI00
aI00
aI00
aI00
aI00
aI00
aI00
aI00
aI00
aI00
aI00
aI00
aI00
aI00
aI00
aI00
aI00
aI00
aI00
aI00
aI00
aI00
aI00
aI00
aI00
aI00
aI00
aI00
aI00
aI00
aI00
aI00
aI00
aI00
aI00
aI00
aI00
aI00
aI00
aI00
asb.